target datalayout = "e-m:e-p270:32:32-p271:32:32-p272:64:64-i64:64-i128:128-f80:128-n8:16:32:64-S128"
target triple = "x86_64-pc-linux-gnu"

%struct.raw_key_details_st = type { ptr, ptr, i32 }

@.str.12 = private unnamed_addr constant [5 x i8] c"priv\00", align 1
@.str.13 = private unnamed_addr constant [4 x i8] c"pub\00", align 1

; Function Attrs: nounwind uwtable
define internal i32 @get_raw_key_details(ptr noundef %0, ptr noundef %1) #0 {
  %3 = alloca i32, align 4
  %4 = alloca ptr, align 8
  %5 = alloca ptr, align 8
  %6 = alloca ptr, align 8
  %7 = alloca ptr, align 8
  %8 = alloca i32, align 4
  store ptr %0, ptr %4, align 8, !tbaa !82
  store ptr %1, ptr %5, align 8, !tbaa !31
  call void @llvm.lifetime.start.p0(i64 8, ptr %6) #8
  store ptr null, ptr %6, align 8, !tbaa !82
  call void @llvm.lifetime.start.p0(i64 8, ptr %7) #8
  %9 = load ptr, ptr %5, align 8, !tbaa !31
  store ptr %9, ptr %7, align 8, !tbaa !84
  %10 = load ptr, ptr %7, align 8, !tbaa !84
  %11 = getelementptr inbounds nuw %struct.raw_key_details_st, ptr %10, i32 0, i32 2
  %12 = load i32, ptr %11, align 8, !tbaa !80
  %13 = icmp eq i32 %12, 1
  br i1 %13, label %14, label %40

14:                                               ; preds = %2
  %15 = load ptr, ptr %4, align 8, !tbaa !82
  %16 = call ptr @OSSL_PARAM_locate_const(ptr noundef %15, ptr noundef @.str.12)
  store ptr %16, ptr %6, align 8, !tbaa !82
  %17 = icmp ne ptr %16, null
  br i1 %17, label %18, label %39

18:                                               ; preds = %14
  %19 = load ptr, ptr %6, align 8, !tbaa !82
  %20 = load ptr, ptr %7, align 8, !tbaa !84
  %21 = getelementptr inbounds nuw %struct.raw_key_details_st, ptr %20, i32 0, i32 0
  %22 = load ptr, ptr %21, align 8, !tbaa !76
  %23 = load ptr, ptr %7, align 8, !tbaa !84
  %24 = getelementptr inbounds nuw %struct.raw_key_details_st, ptr %23, i32 0, i32 0
  %25 = load ptr, ptr %24, align 8, !tbaa !76
  %26 = icmp eq ptr %25, null
  br i1 %26, label %27, label %28

27:                                               ; preds = %18
  br label %33

28:                                               ; preds = %18
  %29 = load ptr, ptr %7, align 8, !tbaa !84
  %30 = getelementptr inbounds nuw %struct.raw_key_details_st, ptr %29, i32 0, i32 1
  %31 = load ptr, ptr %30, align 8, !tbaa !79
  %32 = load i64, ptr %31, align 8, !tbaa !68
  br label %33

33:                                               ; preds = %28, %27
  %34 = phi i64 [ 0, %27 ], [ %32, %28 ]
  %35 = load ptr, ptr %7, align 8, !tbaa !84
  %36 = getelementptr inbounds nuw %struct.raw_key_details_st, ptr %35, i32 0, i32 1
  %37 = load ptr, ptr %36, align 8, !tbaa !79
  %38 = call i32 @OSSL_PARAM_get_octet_string(ptr noundef %19, ptr noundef %22, i64 noundef %34, ptr noundef %37)
  store i32 %38, ptr %3, align 4
  store i32 1, ptr %8, align 4
  br label %73

39:                                               ; preds = %14
  br label %72

40:                                               ; preds = %2
  %41 = load ptr, ptr %7, align 8, !tbaa !84
  %42 = getelementptr inbounds nuw %struct.raw_key_details_st, ptr %41, i32 0, i32 2
  %43 = load i32, ptr %42, align 8, !tbaa !80
  %44 = icmp eq i32 %43, 2
  br i1 %44, label %45, label %71

45:                                               ; preds = %40
  %46 = load ptr, ptr %4, align 8, !tbaa !82
  %47 = call ptr @OSSL_PARAM_locate_const(ptr noundef %46, ptr noundef @.str.13)
  store ptr %47, ptr %6, align 8, !tbaa !82
  %48 = icmp ne ptr %47, null
  br i1 %48, label %49, label %70

49:                                               ; preds = %45
  %50 = load ptr, ptr %6, align 8, !tbaa !82
  %51 = load ptr, ptr %7, align 8, !tbaa !84
  %52 = getelementptr inbounds nuw %struct.raw_key_details_st, ptr %51, i32 0, i32 0
  %53 = load ptr, ptr %52, align 8, !tbaa !76
  %54 = load ptr, ptr %7, align 8, !tbaa !84
  %55 = getelementptr inbounds nuw %struct.raw_key_details_st, ptr %54, i32 0, i32 0
  %56 = load ptr, ptr %55, align 8, !tbaa !76
  %57 = icmp eq ptr %56, null
  br i1 %57, label %58, label %59

58:                                               ; preds = %49
  br label %64

59:                                               ; preds = %49
  %60 = load ptr, ptr %7, align 8, !tbaa !84
  %61 = getelementptr inbounds nuw %struct.raw_key_details_st, ptr %60, i32 0, i32 1
  %62 = load ptr, ptr %61, align 8, !tbaa !79
  %63 = load i64, ptr %62, align 8, !tbaa !68
  br label %64

64:                                               ; preds = %59, %58
  %65 = phi i64 [ 0, %58 ], [ %63, %59 ]
  %66 = load ptr, ptr %7, align 8, !tbaa !84
  %67 = getelementptr inbounds nuw %struct.raw_key_details_st, ptr %66, i32 0, i32 1
  %68 = load ptr, ptr %67, align 8, !tbaa !79
  %69 = call i32 @OSSL_PARAM_get_octet_string(ptr noundef %50, ptr noundef %53, i64 noundef %65, ptr noundef %68)
  store i32 %69, ptr %3, align 4
  store i32 1, ptr %8, align 4
  br label %73

70:                                               ; preds = %45
  br label %71

71:                                               ; preds = %70, %40
  br label %72

72:                                               ; preds = %71, %39
  store i32 0, ptr %3, align 4
  store i32 1, ptr %8, align 4
  br label %73

73:                                               ; preds = %72, %64, %33
  call void @llvm.lifetime.end.p0(i64 8, ptr %7) #8
  call void @llvm.lifetime.end.p0(i64 8, ptr %6) #8
  %74 = load i32, ptr %3, align 4
  ret i32 %74
}