; Function Attrs: nounwind uwtable
define internal i32 @get_raw_key_details(ptr noundef %0, ptr noundef readonly captures(none) %1) #0 {
  %3 = getelementptr inbounds nuw i8, ptr %1, i64 16
  %4 = load i32, ptr %3, align 8, !tbaa !69
  switch i32 %4, label %23 [
    i32 1, label %5
    i32 2, label %14
  ]

5:                                                ; preds = %2
  %6 = tail call ptr @OSSL_PARAM_locate_const(ptr noundef %0, ptr noundef nonnull @.str.12) #12
  %.not18 = icmp eq ptr %6, null
  br i1 %.not18, label %23, label %7

7:                                                ; preds = %5
  %8 = load ptr, ptr %1, align 8, !tbaa !64
  %9 = icmp eq ptr %8, null
  %.phi.trans.insert20 = getelementptr inbounds nuw i8, ptr %1, i64 8
  %.pre21 = load ptr, ptr %.phi.trans.insert20, align 8, !tbaa !68
  br i1 %9, label %._crit_edge19, label %10

10:                                               ; preds = %7
  %11 = load i64, ptr %.pre21, align 8, !tbaa !71
  br label %._crit_edge19

._crit_edge19:                                    ; preds = %7, %10
  %12 = phi i64 [ %11, %10 ], [ 0, %7 ]
  %13 = tail call i32 @OSSL_PARAM_get_octet_string(ptr noundef nonnull %6, ptr noundef %8, i64 noundef %12, ptr noundef %.pre21) #12
  br label %23

14:                                               ; preds = %2
  %15 = tail call ptr @OSSL_PARAM_locate_const(ptr noundef %0, ptr noundef nonnull @.str.13) #12
  %.not = icmp eq ptr %15, null
  br i1 %.not, label %23, label %16

16:                                               ; preds = %14
  %17 = load ptr, ptr %1, align 8, !tbaa !64
  %18 = icmp eq ptr %17, null
  %.phi.trans.insert = getelementptr inbounds nuw i8, ptr %1, i64 8
  %.pre = load ptr, ptr %.phi.trans.insert, align 8, !tbaa !68
  br i1 %18, label %._crit_edge, label %19

19:                                               ; preds = %16
  %20 = load i64, ptr %.pre, align 8, !tbaa !71
  br label %._crit_edge

._crit_edge:                                      ; preds = %16, %19
  %21 = phi i64 [ %20, %19 ], [ 0, %16 ]
  %22 = tail call i32 @OSSL_PARAM_get_octet_string(ptr noundef nonnull %15, ptr noundef %17, i64 noundef %21, ptr noundef %.pre) #12
  br label %23

23:                                               ; preds = %5, %14, %2, %._crit_edge, %._crit_edge19
  %.0 = phi i32 [ %13, %._crit_edge19 ], [ %22, %._crit_edge ], [ 0, %2 ], [ 0, %14 ], [ 0, %5 ]
  ret i32 %.0
}